(dp0
S'dropout_rate'
p1
F0.5
sS'num_latents'
p2
I64
sS'inner_unroll_length'
p3
I5
sS'finetuning_lr_init'
p4
F0.001
sS'orthogonality_penalty_weight'
p5
F0.001
sS'inner_lr_init'
p6
F1.0
sS'kl_weight'
p7
F0.001
sS'l2_penalty_weight'
p8
F1e-08
sS'encoder_penalty_weight'
p9
F1e-09
sS'finetuning_unroll_length'
p10
I3
s.