(dp0
S'metatest_batch_size'
p1
I16
sS'gradient_threshold'
p2
F0.1
sS'num_tr_examples_per_class'
p3
I1
sS'outer_lr'
p4
F0.0001
sS'metatrain_batch_size'
p5
I12
sS'gradient_norm_threshold'
p6
F0.1
sS'num_val_examples_per_class'
p7
I5
sS'num_steps_limit'
p8
I100000
sS'metavalid_batch_size'
p9
I16
sS'num_classes'
p10
I5
s.